target datalayout = "e-m:e-p270:32:32-p271:32:32-p272:64:64-i64:64-i128:128-f80:128-n8:16:32:64-S128"
target triple = "x86_64-pc-linux-gnu"

%"class.std::vector" = type { %"struct.std::_Vector_base" }
%"struct.std::_Vector_base" = type { %"struct.std::_Vector_base<opencc::UTF8StringSliceBase<unsigned char>, std::allocator<opencc::UTF8StringSliceBase<unsigned char>>>::_Vector_impl" }
%"struct.std::_Vector_base<opencc::UTF8StringSliceBase<unsigned char>, std::allocator<opencc::UTF8StringSliceBase<unsigned char>>>::_Vector_impl" = type { %"struct.std::_Vector_base<opencc::UTF8StringSliceBase<unsigned char>, std::allocator<opencc::UTF8StringSliceBase<unsigned char>>>::_Vector_impl_data" }
%"struct.std::_Vector_base<opencc::UTF8StringSliceBase<unsigned char>, std::allocator<opencc::UTF8StringSliceBase<unsigned char>>>::_Vector_impl_data" = type { ptr, ptr, ptr }
%"class.opencc::PhraseExtract" = type { ptr, i64, i64, i64, i64, %"class.std::function", %"class.std::function", i8, i8, i8, i8, i8, i8, i8, i8, %"class.opencc::UTF8StringSliceBase.3", i64, double, %"class.std::vector", %"class.std::vector", %"class.std::vector", %"class.std::vector", ptr }
%"class.std::function" = type { %"class.std::_Function_base", ptr }
%"class.std::_Function_base" = type { %"union.std::_Any_data", ptr }
%"union.std::_Any_data" = type { %"union.std::_Nocopy_types" }
%"union.std::_Nocopy_types" = type { { i64, i64 } }
%"class.opencc::UTF8StringSliceBase.3" = type { ptr, i64, i64 }
%"class.std::function.23" = type { %"class.std::_Function_base", ptr }
%class.anon.27 = type { ptr }

; Function Attrs: mustprogress nounwind uwtable
define linkonce_odr noundef ptr @_ZNSt9_Any_data9_M_accessEv(ptr noundef nonnull align 8 dereferenceable(16) %0) #5 comdat align 2 {
  %2 = alloca ptr, align 8
  store ptr %0, ptr %2, align 8
  %3 = load ptr, ptr %2, align 8
  %4 = getelementptr inbounds [16 x i8], ptr %3, i64 0, i64 0
  ret ptr %4
}

; Function Attrs: mustprogress nounwind uwtable
define internal void @"_ZNSt14_Function_base13_Base_managerIZN6opencc13PhraseExtract22CalculatePrefixEntropyEvE3$_0E9_M_createIS3_EEvRSt9_Any_dataOT_St17integral_constantIbLb1EE"(ptr noundef nonnull align 8 dereferenceable(16) %0, ptr noundef nonnull align 8 dereferenceable(8) %1) #5 align 2 {
  %3 = alloca ptr, align 8
  %4 = alloca ptr, align 8
  store ptr %0, ptr %3, align 8
  store ptr %1, ptr %4, align 8
  %5 = load ptr, ptr %3, align 8
  %6 = call noundef ptr @_ZNSt9_Any_data9_M_accessEv(ptr noundef nonnull align 8 dereferenceable(16) %5) #3
  %7 = load ptr, ptr %4, align 8
  call void @llvm.memcpy.p0.p0.i64(ptr align 8 %6, ptr align 8 %7, i64 8, i1 false)
  ret void
}

; Function Attrs: mustprogress nounwind uwtable
define linkonce_odr void @_ZNSt14_Function_baseD2Ev(ptr noundef nonnull align 8 dereferenceable(24) %0) unnamed_addr #5 comdat align 2 personality ptr @__gxx_personality_v0 {
  %2 = alloca ptr, align 8
  store ptr %0, ptr %2, align 8
  %3 = load ptr, ptr %2, align 8
  %4 = getelementptr inbounds %"class.std::_Function_base", ptr %3, i32 0, i32 1
  %5 = load ptr, ptr %4, align 8
  %6 = icmp ne ptr %5, null
  br i1 %6, label %7, label %14

7:                                                ; preds = %1
  %8 = getelementptr inbounds %"class.std::_Function_base", ptr %3, i32 0, i32 1
  %9 = load ptr, ptr %8, align 8
  %10 = getelementptr inbounds %"class.std::_Function_base", ptr %3, i32 0, i32 0
  %11 = getelementptr inbounds %"class.std::_Function_base", ptr %3, i32 0, i32 0
  %12 = invoke noundef zeroext i1 %9(ptr noundef nonnull align 8 dereferenceable(16) %10, ptr noundef nonnull align 8 dereferenceable(16) %11, i32 noundef 3)
          to label %13 unwind label %15

13:                                               ; preds = %7
  br label %14

14:                                               ; preds = %13, %1
  ret void

15:                                               ; preds = %7
  %16 = landingpad { ptr, i32 }
          catch ptr null
  %17 = extractvalue { ptr, i32 } %16, 0
  call void @__clang_call_terminate(ptr %17) #16
  unreachable
}

; Function Attrs: mustprogress nounwind uwtable
define internal void @"_ZNSt14_Function_base13_Base_managerIZN6opencc13PhraseExtract22CalculatePrefixEntropyEvE3$_0E15_M_init_functorIS3_EEvRSt9_Any_dataOT_"(ptr noundef nonnull align 8 dereferenceable(16) %0, ptr noundef nonnull align 8 dereferenceable(8) %1) #5 align 2 personality ptr @__gxx_personality_v0 {
  %3 = alloca ptr, align 8
  %4 = alloca ptr, align 8
  store ptr %0, ptr %3, align 8
  store ptr %1, ptr %4, align 8
  %5 = load ptr, ptr %3, align 8
  %6 = load ptr, ptr %4, align 8
  invoke void @"_ZNSt14_Function_base13_Base_managerIZN6opencc13PhraseExtract22CalculatePrefixEntropyEvE3$_0E9_M_createIS3_EEvRSt9_Any_dataOT_St17integral_constantIbLb1EE"(ptr noundef nonnull align 8 dereferenceable(16) %5, ptr noundef nonnull align 8 dereferenceable(8) %6)
          to label %7 unwind label %8

7:                                                ; preds = %2
  ret void

8:                                                ; preds = %2
  %9 = landingpad { ptr, i32 }
          catch ptr null
  %10 = extractvalue { ptr, i32 } %9, 0
  call void @__clang_call_terminate(ptr %10) #16
  unreachable
}

; Function Attrs: mustprogress nounwind uwtable
define internal noundef zeroext i1 @"_ZNSt14_Function_base13_Base_managerIZN6opencc13PhraseExtract22CalculatePrefixEntropyEvE3$_0E21_M_not_empty_functionIS3_EEbRKT_"(ptr noundef nonnull align 8 dereferenceable(8) %0) #5 align 2 {
  %2 = alloca ptr, align 8
  store ptr %0, ptr %2, align 8
  ret i1 true
}

; Function Attrs: mustprogress nounwind uwtable
define linkonce_odr void @_ZNSt14_Function_baseC2Ev(ptr noundef nonnull align 8 dereferenceable(24) %0) unnamed_addr #5 comdat align 2 {
  %2 = alloca ptr, align 8
  store ptr %0, ptr %2, align 8
  %3 = load ptr, ptr %2, align 8
  %4 = getelementptr inbounds %"class.std::_Function_base", ptr %3, i32 0, i32 0
  store ptr null, ptr %4, align 8
  %5 = getelementptr inbounds %"class.std::_Function_base", ptr %3, i32 0, i32 1
  store ptr null, ptr %5, align 8
  ret void
}

; Function Attrs: mustprogress nounwind uwtable
define linkonce_odr void @_ZNSt8functionIFvRKN6opencc19UTF8StringSliceBaseIhEERSt13unordered_mapIS2_mNS2_6HasherESt8equal_toIS2_ESaISt4pairIS3_mEEEEED2Ev(ptr noundef nonnull align 8 dereferenceable(32) %0) unnamed_addr #5 comdat align 2 {
  %2 = alloca ptr, align 8
  store ptr %0, ptr %2, align 8
  %3 = load ptr, ptr %2, align 8
  call void @_ZNSt14_Function_baseD2Ev(ptr noundef nonnull align 8 dereferenceable(24) %3) #3
  ret void
}

; Function Attrs: mustprogress nounwind uwtable
define internal void @"_ZNSt8functionIFvRKN6opencc19UTF8StringSliceBaseIhEERSt13unordered_mapIS2_mNS2_6HasherESt8equal_toIS2_ESaISt4pairIS3_mEEEEEC2IZNS0_13PhraseExtract22CalculatePrefixEntropyEvE3$_0vEEOT_"(ptr noundef nonnull align 8 dereferenceable(32) %0, ptr noundef nonnull align 8 dereferenceable(8) %1) unnamed_addr #5 align 2 {
  %3 = alloca ptr, align 8
  %4 = alloca ptr, align 8
  store ptr %0, ptr %3, align 8
  store ptr %1, ptr %4, align 8
  %5 = load ptr, ptr %3, align 8
  %6 = getelementptr inbounds i8, ptr %5, i64 0
  call void @llvm.memset.p0.i64(ptr align 8 %6, i8 0, i64 24, i1 false)
  call void @_ZNSt14_Function_baseC2Ev(ptr noundef nonnull align 8 dereferenceable(24) %5) #3
  %7 = getelementptr inbounds %"class.std::function.23", ptr %5, i32 0, i32 1
  store ptr null, ptr %7, align 8
  %8 = load ptr, ptr %4, align 8
  %9 = call noundef zeroext i1 @"_ZNSt14_Function_base13_Base_managerIZN6opencc13PhraseExtract22CalculatePrefixEntropyEvE3$_0E21_M_not_empty_functionIS3_EEbRKT_"(ptr noundef nonnull align 8 dereferenceable(8) %8) #3
  br i1 %9, label %10, label %15

10:                                               ; preds = %2
  %11 = getelementptr inbounds %"class.std::_Function_base", ptr %5, i32 0, i32 0
  %12 = load ptr, ptr %4, align 8
  call void @"_ZNSt14_Function_base13_Base_managerIZN6opencc13PhraseExtract22CalculatePrefixEntropyEvE3$_0E15_M_init_functorIS3_EEvRSt9_Any_dataOT_"(ptr noundef nonnull align 8 dereferenceable(16) %11, ptr noundef nonnull align 8 dereferenceable(8) %12) #3
  %13 = getelementptr inbounds %"class.std::function.23", ptr %5, i32 0, i32 1
  store ptr @"_ZNSt17_Function_handlerIFvRKN6opencc19UTF8StringSliceBaseIhEERSt13unordered_mapIS2_mNS2_6HasherESt8equal_toIS2_ESaISt4pairIS3_mEEEEZNS0_13PhraseExtract22CalculatePrefixEntropyEvE3$_0E9_M_invokeERKSt9_Any_dataS4_SD_", ptr %13, align 8
  %14 = getelementptr inbounds %"class.std::_Function_base", ptr %5, i32 0, i32 1
  store ptr @"_ZNSt17_Function_handlerIFvRKN6opencc19UTF8StringSliceBaseIhEERSt13unordered_mapIS2_mNS2_6HasherESt8equal_toIS2_ESaISt4pairIS3_mEEEEZNS0_13PhraseExtract22CalculatePrefixEntropyEvE3$_0E10_M_managerERSt9_Any_dataRKSI_St18_Manager_operation", ptr %14, align 8
  br label %15

15:                                               ; preds = %10, %2
  ret void
}

; Function Attrs: mustprogress uwtable
define void @_ZN6opencc13PhraseExtract22CalculatePrefixEntropyEv(ptr noundef nonnull align 8 dereferenceable(256) %0) #4 align 2 personality ptr @__gxx_personality_v0 {
  %2 = alloca ptr, align 8
  %3 = alloca %"class.std::function.23", align 8
  %4 = alloca %class.anon.27, align 8
  %5 = alloca ptr, align 8
  %6 = alloca i32, align 4
  store ptr %0, ptr %2, align 8
  %7 = load ptr, ptr %2, align 8
  %8 = getelementptr inbounds %"class.opencc::PhraseExtract", ptr %7, i32 0, i32 7
  %9 = load i8, ptr %8, align 8
  %10 = trunc i8 %9 to i1
  br i1 %10, label %12, label %11

11:                                               ; preds = %1
  call void @_ZN6opencc13PhraseExtract15ExtractPrefixesEv(ptr noundef nonnull align 8 dereferenceable(256) %7)
  br label %12

12:                                               ; preds = %11, %1
  %13 = getelementptr inbounds %"class.opencc::PhraseExtract", ptr %7, i32 0, i32 9
  %14 = load i8, ptr %13, align 2
  %15 = trunc i8 %14 to i1
  br i1 %15, label %17, label %16

16:                                               ; preds = %12
  call void @_ZN6opencc13PhraseExtract18CalculateFrequencyEv(ptr noundef nonnull align 8 dereferenceable(256) %7)
  br label %17

17:                                               ; preds = %16, %12
  %18 = getelementptr inbounds %"class.opencc::PhraseExtract", ptr %7, i32 0, i32 18
  %19 = getelementptr inbounds %"class.opencc::PhraseExtract", ptr %7, i32 0, i32 3
  %20 = load i64, ptr %19, align 8
  %21 = getelementptr inbounds %"class.opencc::PhraseExtract", ptr %7, i32 0, i32 1
  %22 = load i64, ptr %21, align 8
  %23 = getelementptr inbounds %"class.opencc::PhraseExtract", ptr %7, i32 0, i32 2
  %24 = load i64, ptr %23, align 8
  %25 = getelementptr inbounds %class.anon.27, ptr %4, i32 0, i32 0
  store ptr %7, ptr %25, align 8
  call void @"_ZNSt8functionIFvRKN6opencc19UTF8StringSliceBaseIhEERSt13unordered_mapIS2_mNS2_6HasherESt8equal_toIS2_ESaISt4pairIS3_mEEEEEC2IZNS0_13PhraseExtract22CalculatePrefixEntropyEvE3$_0vEEOT_"(ptr noundef nonnull align 8 dereferenceable(32) %3, ptr noundef nonnull align 8 dereferenceable(8) %4) #3
  invoke void @_ZN6opencc28CalculatePrefixSuffixEntropyILb0EEEvRKSt6vectorINS_19UTF8StringSliceBaseIhEESaIS3_EEmmmRKSt8functionIFvRKS3_RSt13unordered_mapIS3_mNS3_6HasherESt8equal_toIS3_ESaISt4pairIS9_mEEEEE(ptr noundef nonnull align 8 dereferenceable(24) %18, i64 noundef %20, i64 noundef %22, i64 noundef %24, ptr noundef nonnull align 8 dereferenceable(32) %3)
          to label %26 unwind label %28

26:                                               ; preds = %17
  call void @_ZNSt8functionIFvRKN6opencc19UTF8StringSliceBaseIhEERSt13unordered_mapIS2_mNS2_6HasherESt8equal_toIS2_ESaISt4pairIS3_mEEEEED2Ev(ptr noundef nonnull align 8 dereferenceable(32) %3) #3
  %27 = getelementptr inbounds %"class.opencc::PhraseExtract", ptr %7, i32 0, i32 12
  store i8 1, ptr %27, align 1
  ret void

28:                                               ; preds = %17
  %29 = landingpad { ptr, i32 }
          cleanup
  %30 = extractvalue { ptr, i32 } %29, 0
  store ptr %30, ptr %5, align 8
  %31 = extractvalue { ptr, i32 } %29, 1
  store i32 %31, ptr %6, align 4
  call void @_ZNSt8functionIFvRKN6opencc19UTF8StringSliceBaseIhEERSt13unordered_mapIS2_mNS2_6HasherESt8equal_toIS2_ESaISt4pairIS3_mEEEEED2Ev(ptr noundef nonnull align 8 dereferenceable(32) %3) #3
  br label %32

32:                                               ; preds = %28
  %33 = load ptr, ptr %5, align 8
  %34 = load i32, ptr %6, align 4
  %35 = insertvalue { ptr, i32 } poison, ptr %33, 0
  %36 = insertvalue { ptr, i32 } %35, i32 %34, 1
  resume { ptr, i32 } %36
}