; Function Attrs: mustprogress uwtable
define void @_ZN6opencc13PhraseExtract22CalculatePrefixEntropyEv(ptr noundef nonnull align 8 dereferenceable(256) %0) local_unnamed_addr #3 align 2 personality ptr @__gxx_personality_v0 {
  %2 = alloca %"class.std::function.23", align 8
  %3 = getelementptr inbounds i8, ptr %0, i64 104
  %4 = load i8, ptr %3, align 8
  %5 = trunc i8 %4 to i1
  br i1 %5, label %7, label %6

6:                                                ; preds = %1
  tail call void @_ZN6opencc13PhraseExtract15ExtractPrefixesEv(ptr noundef nonnull align 8 dereferenceable(256) %0)
  br label %7

7:                                                ; preds = %6, %1
  %8 = getelementptr inbounds i8, ptr %0, i64 106
  %9 = load i8, ptr %8, align 2
  %10 = trunc i8 %9 to i1
  br i1 %10, label %12, label %11

11:                                               ; preds = %7
  tail call void @_ZN6opencc13PhraseExtract18CalculateFrequencyEv(ptr noundef nonnull align 8 dereferenceable(256) %0)
  br label %12

12:                                               ; preds = %11, %7
  %13 = getelementptr inbounds i8, ptr %0, i64 152
  %14 = getelementptr inbounds i8, ptr %0, i64 24
  %15 = load i64, ptr %14, align 8
  %16 = getelementptr inbounds i8, ptr %0, i64 8
  %17 = load i64, ptr %16, align 8
  %18 = getelementptr inbounds i8, ptr %0, i64 16
  %19 = load i64, ptr %18, align 8
  %20 = getelementptr inbounds i8, ptr %2, i64 16
  %21 = getelementptr inbounds i8, ptr %2, i64 24
  %22 = getelementptr inbounds i8, ptr %2, i64 8
  store i64 0, ptr %22, align 8
  %23 = ptrtoint ptr %0 to i64
  store i64 %23, ptr %2, align 8
  store ptr @"_ZNSt17_Function_handlerIFvRKN6opencc19UTF8StringSliceBaseIhEERSt13unordered_mapIS2_mNS2_6HasherESt8equal_toIS2_ESaISt4pairIS3_mEEEEZNS0_13PhraseExtract22CalculatePrefixEntropyEvE3$_0E9_M_invokeERKSt9_Any_dataS4_SD_", ptr %21, align 8
  store ptr @"_ZNSt17_Function_handlerIFvRKN6opencc19UTF8StringSliceBaseIhEERSt13unordered_mapIS2_mNS2_6HasherESt8equal_toIS2_ESaISt4pairIS3_mEEEEZNS0_13PhraseExtract22CalculatePrefixEntropyEvE3$_0E10_M_managerERSt9_Any_dataRKSI_St18_Manager_operation", ptr %20, align 8
  invoke void @_ZN6opencc28CalculatePrefixSuffixEntropyILb0EEEvRKSt6vectorINS_19UTF8StringSliceBaseIhEESaIS3_EEmmmRKSt8functionIFvRKS3_RSt13unordered_mapIS3_mNS3_6HasherESt8equal_toIS3_ESaISt4pairIS9_mEEEEE(ptr noundef nonnull align 8 dereferenceable(24) %13, i64 noundef %15, i64 noundef %17, i64 noundef %19, ptr noundef nonnull align 8 dereferenceable(32) %2)
          to label %24 unwind label %32

24:                                               ; preds = %12
  %25 = load ptr, ptr %20, align 8
  %.not.i.i = icmp eq ptr %25, null
  br i1 %.not.i.i, label %_ZNSt8functionIFvRKN6opencc19UTF8StringSliceBaseIhEERSt13unordered_mapIS2_mNS2_6HasherESt8equal_toIS2_ESaISt4pairIS3_mEEEEED2Ev.exit, label %26

26:                                               ; preds = %24
  %27 = invoke noundef zeroext i1 %25(ptr noundef nonnull align 8 dereferenceable(16) %2, ptr noundef nonnull align 8 dereferenceable(16) %2, i32 noundef 3)
          to label %_ZNSt8functionIFvRKN6opencc19UTF8StringSliceBaseIhEERSt13unordered_mapIS2_mNS2_6HasherESt8equal_toIS2_ESaISt4pairIS3_mEEEEED2Ev.exit unwind label %28

28:                                               ; preds = %26
  %29 = landingpad { ptr, i32 }
          catch ptr null
  %30 = extractvalue { ptr, i32 } %29, 0
  call void @__clang_call_terminate(ptr %30) #27
  unreachable

_ZNSt8functionIFvRKN6opencc19UTF8StringSliceBaseIhEERSt13unordered_mapIS2_mNS2_6HasherESt8equal_toIS2_ESaISt4pairIS3_mEEEEED2Ev.exit: ; preds = %24, %26
  %31 = getelementptr inbounds i8, ptr %0, i64 109
  store i8 1, ptr %31, align 1
  ret void

32:                                               ; preds = %12
  %33 = landingpad { ptr, i32 }
          cleanup
  %34 = load ptr, ptr %20, align 8
  %.not.i.i2 = icmp eq ptr %34, null
  br i1 %.not.i.i2, label %_ZNSt8functionIFvRKN6opencc19UTF8StringSliceBaseIhEERSt13unordered_mapIS2_mNS2_6HasherESt8equal_toIS2_ESaISt4pairIS3_mEEEEED2Ev.exit3, label %35

35:                                               ; preds = %32
  %36 = invoke noundef zeroext i1 %34(ptr noundef nonnull align 8 dereferenceable(16) %2, ptr noundef nonnull align 8 dereferenceable(16) %2, i32 noundef 3)
          to label %_ZNSt8functionIFvRKN6opencc19UTF8StringSliceBaseIhEERSt13unordered_mapIS2_mNS2_6HasherESt8equal_toIS2_ESaISt4pairIS3_mEEEEED2Ev.exit3 unwind label %37

37:                                               ; preds = %35
  %38 = landingpad { ptr, i32 }
          catch ptr null
  %39 = extractvalue { ptr, i32 } %38, 0
  call void @__clang_call_terminate(ptr %39) #27
  unreachable

_ZNSt8functionIFvRKN6opencc19UTF8StringSliceBaseIhEERSt13unordered_mapIS2_mNS2_6HasherESt8equal_toIS2_ESaISt4pairIS3_mEEEEED2Ev.exit3: ; preds = %32, %35
  resume { ptr, i32 } %33
}